; Function Attrs: mustprogress uwtable
define hidden void @_ZN3sls10arith_baseI8rationalE6to_numERKS1_(ptr dead_on_unwind noalias writable sret(%class.rational) align 8 initializes((0, 4), (8, 20), (24, 32)) %0, ptr noundef nonnull readnone align 8 captures(none) dereferenceable(792) %1, ptr noundef nonnull align 8 dereferenceable(32) %2) local_unnamed_addr #3 align 2 {
  store i32 0, ptr %0, align 8, !tbaa !3
  %4 = getelementptr inbounds nuw i8, ptr %0, i64 4
  %5 = load i8, ptr %4, align 4
  %6 = and i8 %5, -4
  store i8 %6, ptr %4, align 4
  %7 = getelementptr inbounds nuw i8, ptr %0, i64 8
  store ptr null, ptr %7, align 8, !tbaa !10
  %8 = getelementptr inbounds nuw i8, ptr %0, i64 16
  store i32 1, ptr %8, align 8, !tbaa !3
  %9 = getelementptr inbounds nuw i8, ptr %0, i64 20
  %10 = load i8, ptr %9, align 4
  %11 = and i8 %10, -4
  store i8 %11, ptr %9, align 4
  %12 = getelementptr inbounds nuw i8, ptr %0, i64 24
  store ptr null, ptr %12, align 8, !tbaa !10
  %13 = load ptr, ptr @_ZN8rational13g_mpq_managerE, align 8, !tbaa !11
  %14 = getelementptr inbounds nuw i8, ptr %2, i64 4
  %15 = load i8, ptr %14, align 4
  %16 = and i8 %15, 1
  %17 = icmp eq i8 %16, 0
  br i1 %17, label %18, label %20

18:                                               ; preds = %3
  %19 = load i32, ptr %2, align 8, !tbaa !3
  store i32 %19, ptr %0, align 8, !tbaa !3
  store i8 %6, ptr %4, align 4
  br label %_ZN11mpq_managerILb1EE3setER3mpzRKS1_.exit.i.i

20:                                               ; preds = %3
  tail call void @_ZN11mpz_managerILb1EE7big_setER3mpzRKS1_(ptr noundef nonnull align 8 dereferenceable(728) %13, ptr noundef nonnull align 8 dereferenceable(32) %0, ptr noundef nonnull align 8 dereferenceable(32) %2)
  br label %_ZN11mpq_managerILb1EE3setER3mpzRKS1_.exit.i.i

_ZN11mpq_managerILb1EE3setER3mpzRKS1_.exit.i.i:   ; preds = %20, %18
  %21 = getelementptr inbounds nuw i8, ptr %2, i64 16
  %22 = getelementptr inbounds nuw i8, ptr %2, i64 20
  %23 = load i8, ptr %22, align 4
  %24 = and i8 %23, 1
  %25 = icmp eq i8 %24, 0
  br i1 %25, label %26, label %30

26:                                               ; preds = %_ZN11mpq_managerILb1EE3setER3mpzRKS1_.exit.i.i
  %27 = load i32, ptr %21, align 8, !tbaa !3
  store i32 %27, ptr %8, align 8, !tbaa !3
  %28 = load i8, ptr %9, align 4
  %29 = and i8 %28, -2
  store i8 %29, ptr %9, align 4
  br label %_ZN8rationalC2ERKS_.exit

30:                                               ; preds = %_ZN11mpq_managerILb1EE3setER3mpzRKS1_.exit.i.i
  tail call void @_ZN11mpz_managerILb1EE7big_setER3mpzRKS1_(ptr noundef nonnull align 8 dereferenceable(728) %13, ptr noundef nonnull align 8 dereferenceable(16) %8, ptr noundef nonnull align 8 dereferenceable(16) %21)
  br label %_ZN8rationalC2ERKS_.exit

_ZN8rationalC2ERKS_.exit:                         ; preds = %26, %30
  ret void
}